target datalayout = "e-m:e-p270:32:32-p271:32:32-p272:64:64-i64:64-i128:128-f80:128-n8:16:32:64-S128"
target triple = "x86_64-pc-linux-gnu"

@.str.119 = private unnamed_addr constant [49 x i8] c"start >= 0 && length > 0 && length <= 64 - start\00", align 1
@.str.120 = private unnamed_addr constant [100 x i8] c"/home/dtcxzyw/WorkSpace/Projects/compilers/llvm-opt-benchmark/bench/qemu/qemu/include/qemu/bitops.h\00", align 1
@__PRETTY_FUNCTION__.extract64 = private unnamed_addr constant [39 x i8] c"uint64_t extract64(uint64_t, int, int)\00", align 1

; Function Attrs: inlinehint nounwind sspstrong uwtable
define internal i64 @extract64(i64 noundef %0, i32 noundef %1, i32 noundef %2) #2 {
  %4 = alloca i64, align 8
  %5 = alloca i32, align 4
  %6 = alloca i32, align 4
  store i64 %0, ptr %4, align 8
  store i32 %1, ptr %5, align 4
  store i32 %2, ptr %6, align 4
  %7 = load i32, ptr %5, align 4
  %8 = icmp sge i32 %7, 0
  br i1 %8, label %9, label %18

9:                                                ; preds = %3
  %10 = load i32, ptr %6, align 4
  %11 = icmp sgt i32 %10, 0
  br i1 %11, label %12, label %18

12:                                               ; preds = %9
  %13 = load i32, ptr %6, align 4
  %14 = load i32, ptr %5, align 4
  %15 = sub i32 64, %14
  %16 = icmp sle i32 %13, %15
  br i1 %16, label %17, label %18

17:                                               ; preds = %12
  br label %19

18:                                               ; preds = %12, %9, %3
  call void @__assert_fail(ptr noundef @.str.119, ptr noundef @.str.120, i32 noundef 574, ptr noundef @__PRETTY_FUNCTION__.extract64) #19
  unreachable

19:                                               ; preds = %17
  %20 = load i64, ptr %4, align 8
  %21 = load i32, ptr %5, align 4
  %22 = zext i32 %21 to i64
  %23 = lshr i64 %20, %22
  %24 = load i32, ptr %6, align 4
  %25 = sub i32 64, %24
  %26 = zext i32 %25 to i64
  %27 = lshr i64 -1, %26
  %28 = and i64 %23, %27
  ret i64 %28
}

; Function Attrs: nounwind sspstrong uwtable
define internal i64 @fw_cfg_dma_mem_read(ptr noundef %0, i64 noundef %1, i32 noundef %2) #0 {
  %4 = alloca ptr, align 8
  %5 = alloca i64, align 8
  %6 = alloca i32, align 4
  store ptr %0, ptr %4, align 8
  store i64 %1, ptr %5, align 8
  store i32 %2, ptr %6, align 4
  %7 = load i64, ptr %5, align 8
  %8 = sub i64 8, %7
  %9 = load i32, ptr %6, align 4
  %10 = zext i32 %9 to i64
  %11 = sub i64 %8, %10
  %12 = mul i64 %11, 8
  %13 = trunc i64 %12 to i32
  %14 = load i32, ptr %6, align 4
  %15 = mul i32 %14, 8
  %16 = call i64 @extract64(i64 noundef 5856171918474036807, i32 noundef %13, i32 noundef %15)
  ret i64 %16
}