; Function Attrs: nounwind sspstrong uwtable
define internal range(i64 0, 5856171918474036808) i64 @fw_cfg_dma_mem_read(ptr readnone captures(none) %0, i64 noundef %1, i32 noundef %2) #2 {
  %4 = trunc i64 %1 to i32
  %.tr = add i32 %2, %4
  %5 = shl i32 %.tr, 3
  %6 = sub i32 64, %5
  %7 = shl i32 %2, 3
  %8 = icmp slt i32 %6, 0
  %9 = icmp slt i32 %7, 1
  %or.cond.not12.i = or i1 %9, %8
  %.not.i = icmp sgt i32 %7, %5
  %or.cond9.i = or i1 %.not.i, %or.cond.not12.i
  br i1 %or.cond9.i, label %10, label %extract64.exit

10:                                               ; preds = %3
  tail call void @__assert_fail(ptr noundef nonnull @.str.119, ptr noundef nonnull @.str.120, i32 noundef 574, ptr noundef nonnull @__PRETTY_FUNCTION__.extract64) #19
  unreachable

extract64.exit:                                   ; preds = %3
  %11 = zext nneg i32 %6 to i64
  %12 = lshr i64 5856171918474036807, %11
  %13 = sub nuw nsw i32 64, %7
  %14 = zext nneg i32 %13 to i64
  %15 = lshr i64 -1, %14
  %16 = and i64 %12, %15
  ret i64 %16
}